target datalayout = "e-m:e-p270:32:32-p271:32:32-p272:64:64-i64:64-i128:128-f80:128-n8:16:32:64-S128"
target triple = "x86_64-pc-linux-gnu"

%struct.mi_commit_mask_s = type { [16 x i64] }
%struct.mi_page_s = type { i32, i32, i8, i16, i16, %union.mi_page_flags_s, i8, ptr, i32, i32, ptr, i64, i64, ptr, ptr, [1 x i64] }
%union.mi_page_flags_s = type { i8 }
%struct.mi_segment_s = type { i64, i8, i8, i8, i8, i64, %struct.mi_commit_mask_s, %struct.mi_commit_mask_s, ptr, ptr, i64, i64, i64, i64, i64, i64, i32, i64, i64, [1024 x %struct.mi_page_s] }
%struct.mi_segments_tld_s = type { [36 x %struct.mi_span_queue_s], i64, i64, i64, i64, ptr, ptr }
%struct.mi_span_queue_s = type { ptr, ptr, i64 }

; Function Attrs: inlinehint nounwind uwtable
define internal zeroext i1 @mi_commit_mask_is_empty(ptr noundef %0) #2 {
  %2 = alloca i1, align 1
  %3 = alloca ptr, align 8
  %4 = alloca i64, align 8
  %5 = alloca i32, align 4
  store ptr %0, ptr %3, align 8, !tbaa !3
  call void @llvm.lifetime.start.p0(i64 8, ptr %4) #7
  store i64 0, ptr %4, align 8, !tbaa !8
  br label %6

6:                                                ; preds = %19, %1
  %7 = load i64, ptr %4, align 8, !tbaa !8
  %8 = icmp ult i64 %7, 16
  br i1 %8, label %10, label %9

9:                                                ; preds = %6
  store i32 2, ptr %5, align 4
  br label %22

10:                                               ; preds = %6
  %11 = load ptr, ptr %3, align 8, !tbaa !3
  %12 = getelementptr inbounds nuw %struct.mi_commit_mask_s, ptr %11, i32 0, i32 0
  %13 = load i64, ptr %4, align 8, !tbaa !8
  %14 = getelementptr inbounds nuw [16 x i64], ptr %12, i64 0, i64 %13
  %15 = load i64, ptr %14, align 8, !tbaa !8
  %16 = icmp ne i64 %15, 0
  br i1 %16, label %17, label %18

17:                                               ; preds = %10
  store i1 false, ptr %2, align 1
  store i32 1, ptr %5, align 4
  br label %22

18:                                               ; preds = %10
  br label %19

19:                                               ; preds = %18
  %20 = load i64, ptr %4, align 8, !tbaa !8
  %21 = add i64 %20, 1
  store i64 %21, ptr %4, align 8, !tbaa !8
  br label %6, !llvm.loop !94

22:                                               ; preds = %17, %9
  call void @llvm.lifetime.end.p0(i64 8, ptr %4) #7
  %23 = load i32, ptr %5, align 4
  switch i32 %23, label %27 [
    i32 2, label %24
    i32 1, label %25
  ]

24:                                               ; preds = %22
  store i1 true, ptr %2, align 1
  br label %25

25:                                               ; preds = %24, %22
  %26 = load i1, ptr %2, align 1
  ret i1 %26

27:                                               ; preds = %22
  unreachable
}

; Function Attrs: inlinehint nounwind uwtable
define internal zeroext i1 @mi_commit_mask_is_full(ptr noundef %0) #2 {
  %2 = alloca i1, align 1
  %3 = alloca ptr, align 8
  %4 = alloca i64, align 8
  %5 = alloca i32, align 4
  store ptr %0, ptr %3, align 8, !tbaa !3
  call void @llvm.lifetime.start.p0(i64 8, ptr %4) #7
  store i64 0, ptr %4, align 8, !tbaa !8
  br label %6

6:                                                ; preds = %19, %1
  %7 = load i64, ptr %4, align 8, !tbaa !8
  %8 = icmp ult i64 %7, 16
  br i1 %8, label %10, label %9

9:                                                ; preds = %6
  store i32 2, ptr %5, align 4
  br label %22

10:                                               ; preds = %6
  %11 = load ptr, ptr %3, align 8, !tbaa !3
  %12 = getelementptr inbounds nuw %struct.mi_commit_mask_s, ptr %11, i32 0, i32 0
  %13 = load i64, ptr %4, align 8, !tbaa !8
  %14 = getelementptr inbounds nuw [16 x i64], ptr %12, i64 0, i64 %13
  %15 = load i64, ptr %14, align 8, !tbaa !8
  %16 = icmp ne i64 %15, -1
  br i1 %16, label %17, label %18

17:                                               ; preds = %10
  store i1 false, ptr %2, align 1
  store i32 1, ptr %5, align 4
  br label %22

18:                                               ; preds = %10
  br label %19

19:                                               ; preds = %18
  %20 = load i64, ptr %4, align 8, !tbaa !8
  %21 = add i64 %20, 1
  store i64 %21, ptr %4, align 8, !tbaa !8
  br label %6, !llvm.loop !122

22:                                               ; preds = %17, %9
  call void @llvm.lifetime.end.p0(i64 8, ptr %4) #7
  %23 = load i32, ptr %5, align 4
  switch i32 %23, label %27 [
    i32 2, label %24
    i32 1, label %25
  ]

24:                                               ; preds = %22
  store i1 true, ptr %2, align 1
  br label %25

25:                                               ; preds = %24, %22
  %26 = load i1, ptr %2, align 1
  ret i1 %26

27:                                               ; preds = %22
  unreachable
}

; Function Attrs: nounwind uwtable
define internal ptr @mi_segment_slices_end(ptr noundef %0) #0 {
  %2 = alloca ptr, align 8
  store ptr %0, ptr %2, align 8, !tbaa !19
  %3 = load ptr, ptr %2, align 8, !tbaa !19
  %4 = getelementptr inbounds nuw %struct.mi_segment_s, ptr %3, i32 0, i32 19
  %5 = load ptr, ptr %2, align 8, !tbaa !19
  %6 = getelementptr inbounds nuw %struct.mi_segment_s, ptr %5, i32 0, i32 18
  %7 = load i64, ptr %6, align 8, !tbaa !83
  %8 = getelementptr inbounds nuw [1024 x %struct.mi_page_s], ptr %4, i64 0, i64 %7
  ret ptr %8
}

; Function Attrs: inlinehint nounwind uwtable
define internal ptr @mi_slice_to_page(ptr noundef %0) #2 {
  %2 = alloca ptr, align 8
  store ptr %0, ptr %2, align 8, !tbaa !21
  %3 = load ptr, ptr %2, align 8, !tbaa !21
  ret ptr %3
}

; Function Attrs: nounwind uwtable
define internal zeroext i1 @mi_segment_ensure_committed(ptr noundef %0, ptr noundef %1, i64 noundef %2, ptr noundef %3) #0 {
  %5 = alloca i1, align 1
  %6 = alloca ptr, align 8
  %7 = alloca ptr, align 8
  %8 = alloca i64, align 8
  %9 = alloca ptr, align 8
  store ptr %0, ptr %6, align 8, !tbaa !19
  store ptr %1, ptr %7, align 8, !tbaa !28
  store i64 %2, ptr %8, align 8, !tbaa !8
  store ptr %3, ptr %9, align 8, !tbaa !65
  %10 = load ptr, ptr %6, align 8, !tbaa !19
  %11 = getelementptr inbounds nuw %struct.mi_segment_s, ptr %10, i32 0, i32 7
  %12 = call zeroext i1 @mi_commit_mask_is_full(ptr noundef %11)
  br i1 %12, label %13, label %18

13:                                               ; preds = %4
  %14 = load ptr, ptr %6, align 8, !tbaa !19
  %15 = getelementptr inbounds nuw %struct.mi_segment_s, ptr %14, i32 0, i32 6
  %16 = call zeroext i1 @mi_commit_mask_is_empty(ptr noundef %15)
  br i1 %16, label %17, label %18

17:                                               ; preds = %13
  store i1 true, ptr %5, align 1
  br label %24

18:                                               ; preds = %13, %4
  %19 = load ptr, ptr %6, align 8, !tbaa !19
  %20 = load ptr, ptr %7, align 8, !tbaa !28
  %21 = load i64, ptr %8, align 8, !tbaa !8
  %22 = load ptr, ptr %9, align 8, !tbaa !65
  %23 = call zeroext i1 @mi_segment_commitx(ptr noundef %19, i1 noundef zeroext true, ptr noundef %20, i64 noundef %21, ptr noundef %22)
  store i1 %23, ptr %5, align 1
  br label %24

24:                                               ; preds = %18, %17
  %25 = load i1, ptr %5, align 1
  ret i1 %25
}

; Function Attrs: nounwind uwtable
define internal ptr @_mi_segment_page_start_from_slice(ptr noundef %0, ptr noundef %1, i64 noundef %2, ptr noundef %3) #0 {
  %5 = alloca ptr, align 8
  %6 = alloca ptr, align 8
  %7 = alloca i64, align 8
  %8 = alloca ptr, align 8
  %9 = alloca i64, align 8
  %10 = alloca i64, align 8
  %11 = alloca i64, align 8
  store ptr %0, ptr %5, align 8, !tbaa !19
  store ptr %1, ptr %6, align 8, !tbaa !21
  store i64 %2, ptr %7, align 8, !tbaa !8
  store ptr %3, ptr %8, align 8, !tbaa !13
  call void @llvm.lifetime.start.p0(i64 8, ptr %9) #7
  %12 = load ptr, ptr %6, align 8, !tbaa !21
  %13 = load ptr, ptr %5, align 8, !tbaa !19
  %14 = getelementptr inbounds nuw %struct.mi_segment_s, ptr %13, i32 0, i32 19
  %15 = getelementptr inbounds [1024 x %struct.mi_page_s], ptr %14, i64 0, i64 0
  %16 = ptrtoint ptr %12 to i64
  %17 = ptrtoint ptr %15 to i64
  %18 = sub i64 %16, %17
  %19 = sdiv exact i64 %18, 80
  store i64 %19, ptr %9, align 8, !tbaa !8
  call void @llvm.lifetime.start.p0(i64 8, ptr %10) #7
  %20 = load ptr, ptr %6, align 8, !tbaa !21
  %21 = getelementptr inbounds nuw %struct.mi_page_s, ptr %20, i32 0, i32 0
  %22 = load i32, ptr %21, align 8, !tbaa !30
  %23 = zext i32 %22 to i64
  %24 = mul i64 %23, 65536
  store i64 %24, ptr %10, align 8, !tbaa !8
  call void @llvm.lifetime.start.p0(i64 8, ptr %11) #7
  %25 = load i64, ptr %7, align 8, !tbaa !8
  %26 = icmp uge i64 %25, 8
  br i1 %26, label %27, label %30

27:                                               ; preds = %4
  %28 = load i64, ptr %7, align 8, !tbaa !8
  %29 = icmp ule i64 %28, 1024
  br label %30

30:                                               ; preds = %27, %4
  %31 = phi i1 [ false, %4 ], [ %29, %27 ]
  %32 = select i1 %31, i32 128, i32 0
  %33 = sext i32 %32 to i64
  store i64 %33, ptr %11, align 8, !tbaa !8
  %34 = load ptr, ptr %8, align 8, !tbaa !13
  %35 = icmp ne ptr %34, null
  br i1 %35, label %36, label %41

36:                                               ; preds = %30
  %37 = load i64, ptr %10, align 8, !tbaa !8
  %38 = load i64, ptr %11, align 8, !tbaa !8
  %39 = sub i64 %37, %38
  %40 = load ptr, ptr %8, align 8, !tbaa !13
  store i64 %39, ptr %40, align 8, !tbaa !8
  br label %41

41:                                               ; preds = %36, %30
  %42 = load ptr, ptr %5, align 8, !tbaa !19
  %43 = load i64, ptr %9, align 8, !tbaa !8
  %44 = mul i64 %43, 65536
  %45 = load i64, ptr %11, align 8, !tbaa !8
  %46 = add i64 %44, %45
  %47 = getelementptr inbounds nuw i8, ptr %42, i64 %46
  call void @llvm.lifetime.end.p0(i64 8, ptr %11) #7
  call void @llvm.lifetime.end.p0(i64 8, ptr %10) #7
  call void @llvm.lifetime.end.p0(i64 8, ptr %9) #7
  ret ptr %47
}

; Function Attrs: nounwind uwtable
define internal ptr @mi_segment_span_allocate(ptr noundef %0, i64 noundef %1, i64 noundef %2, ptr noundef %3) #0 {
  %5 = alloca ptr, align 8
  %6 = alloca ptr, align 8
  %7 = alloca i64, align 8
  %8 = alloca i64, align 8
  %9 = alloca ptr, align 8
  %10 = alloca ptr, align 8
  %11 = alloca i32, align 4
  %12 = alloca i64, align 8
  %13 = alloca ptr, align 8
  %14 = alloca i64, align 8
  %15 = alloca i64, align 8
  %16 = alloca ptr, align 8
  store ptr %0, ptr %6, align 8, !tbaa !19
  store i64 %1, ptr %7, align 8, !tbaa !8
  store i64 %2, ptr %8, align 8, !tbaa !8
  store ptr %3, ptr %9, align 8, !tbaa !31
  call void @llvm.lifetime.start.p0(i64 8, ptr %10) #7
  %17 = load ptr, ptr %6, align 8, !tbaa !19
  %18 = getelementptr inbounds nuw %struct.mi_segment_s, ptr %17, i32 0, i32 19
  %19 = load i64, ptr %7, align 8, !tbaa !8
  %20 = getelementptr inbounds nuw [1024 x %struct.mi_page_s], ptr %18, i64 0, i64 %19
  store ptr %20, ptr %10, align 8, !tbaa !21
  %21 = load ptr, ptr %6, align 8, !tbaa !19
  %22 = load ptr, ptr %6, align 8, !tbaa !19
  %23 = load ptr, ptr %10, align 8, !tbaa !21
  %24 = call ptr @_mi_segment_page_start_from_slice(ptr noundef %22, ptr noundef %23, i64 noundef 0, ptr noundef null)
  %25 = load i64, ptr %8, align 8, !tbaa !8
  %26 = mul i64 %25, 65536
  %27 = load ptr, ptr %9, align 8, !tbaa !31
  %28 = getelementptr inbounds nuw %struct.mi_segments_tld_s, ptr %27, i32 0, i32 5
  %29 = load ptr, ptr %28, align 8, !tbaa !42
  %30 = call zeroext i1 @mi_segment_ensure_committed(ptr noundef %21, ptr noundef %24, i64 noundef %26, ptr noundef %29)
  br i1 %30, label %32, label %31

31:                                               ; preds = %4
  store ptr null, ptr %5, align 8
  store i32 1, ptr %11, align 4
  br label %140

32:                                               ; preds = %4
  %33 = load ptr, ptr %10, align 8, !tbaa !21
  %34 = getelementptr inbounds nuw %struct.mi_page_s, ptr %33, i32 0, i32 1
  store i32 0, ptr %34, align 4, !tbaa !86
  %35 = load i64, ptr %8, align 8, !tbaa !8
  %36 = trunc i64 %35 to i32
  %37 = load ptr, ptr %10, align 8, !tbaa !21
  %38 = getelementptr inbounds nuw %struct.mi_page_s, ptr %37, i32 0, i32 0
  store i32 %36, ptr %38, align 8, !tbaa !30
  call void @llvm.lifetime.start.p0(i64 8, ptr %12) #7
  %39 = load i64, ptr %8, align 8, !tbaa !8
  %40 = mul i64 %39, 65536
  store i64 %40, ptr %12, align 8, !tbaa !8
  %41 = load i64, ptr %12, align 8, !tbaa !8
  %42 = icmp uge i64 %41, 2147483648
  br i1 %42, label %43, label %44

43:                                               ; preds = %32
  br label %46

44:                                               ; preds = %32
  %45 = load i64, ptr %12, align 8, !tbaa !8
  br label %46

46:                                               ; preds = %44, %43
  %47 = phi i64 [ 2147483648, %43 ], [ %45, %44 ]
  %48 = trunc i64 %47 to i32
  %49 = load ptr, ptr %10, align 8, !tbaa !21
  %50 = getelementptr inbounds nuw %struct.mi_page_s, ptr %49, i32 0, i32 9
  store i32 %48, ptr %50, align 4, !tbaa !23
  call void @llvm.lifetime.start.p0(i64 8, ptr %13) #7
  %51 = load ptr, ptr %10, align 8, !tbaa !21
  %52 = call ptr @mi_slice_to_page(ptr noundef %51)
  store ptr %52, ptr %13, align 8, !tbaa !21
  call void @llvm.lifetime.start.p0(i64 8, ptr %14) #7
  %53 = load i64, ptr %8, align 8, !tbaa !8
  %54 = sub i64 %53, 1
  store i64 %54, ptr %14, align 8, !tbaa !8
  %55 = load i64, ptr %14, align 8, !tbaa !8
  %56 = icmp ugt i64 %55, 15
  br i1 %56, label %57, label %58

57:                                               ; preds = %46
  store i64 15, ptr %14, align 8, !tbaa !8
  br label %58

58:                                               ; preds = %57, %46
  %59 = load i64, ptr %7, align 8, !tbaa !8
  %60 = load i64, ptr %14, align 8, !tbaa !8
  %61 = add i64 %59, %60
  %62 = load ptr, ptr %6, align 8, !tbaa !19
  %63 = getelementptr inbounds nuw %struct.mi_segment_s, ptr %62, i32 0, i32 18
  %64 = load i64, ptr %63, align 8, !tbaa !83
  %65 = icmp uge i64 %61, %64
  br i1 %65, label %66, label %73

66:                                               ; preds = %58
  %67 = load ptr, ptr %6, align 8, !tbaa !19
  %68 = getelementptr inbounds nuw %struct.mi_segment_s, ptr %67, i32 0, i32 18
  %69 = load i64, ptr %68, align 8, !tbaa !83
  %70 = load i64, ptr %7, align 8, !tbaa !8
  %71 = sub i64 %69, %70
  %72 = sub i64 %71, 1
  store i64 %72, ptr %14, align 8, !tbaa !8
  br label %73

73:                                               ; preds = %66, %58
  %74 = load ptr, ptr %10, align 8, !tbaa !21
  %75 = getelementptr inbounds nuw %struct.mi_page_s, ptr %74, i32 1
  store ptr %75, ptr %10, align 8, !tbaa !21
  call void @llvm.lifetime.start.p0(i64 8, ptr %15) #7
  store i64 1, ptr %15, align 8, !tbaa !8
  br label %76

76:                                               ; preds = %91, %73
  %77 = load i64, ptr %15, align 8, !tbaa !8
  %78 = load i64, ptr %14, align 8, !tbaa !8
  %79 = icmp ule i64 %77, %78
  br i1 %79, label %81, label %80

80:                                               ; preds = %76
  store i32 2, ptr %11, align 4
  call void @llvm.lifetime.end.p0(i64 8, ptr %15) #7
  br label %96

81:                                               ; preds = %76
  %82 = load i64, ptr %15, align 8, !tbaa !8
  %83 = mul i64 80, %82
  %84 = trunc i64 %83 to i32
  %85 = load ptr, ptr %10, align 8, !tbaa !21
  %86 = getelementptr inbounds nuw %struct.mi_page_s, ptr %85, i32 0, i32 1
  store i32 %84, ptr %86, align 4, !tbaa !86
  %87 = load ptr, ptr %10, align 8, !tbaa !21
  %88 = getelementptr inbounds nuw %struct.mi_page_s, ptr %87, i32 0, i32 0
  store i32 0, ptr %88, align 8, !tbaa !30
  %89 = load ptr, ptr %10, align 8, !tbaa !21
  %90 = getelementptr inbounds nuw %struct.mi_page_s, ptr %89, i32 0, i32 9
  store i32 1, ptr %90, align 4, !tbaa !23
  br label %91

91:                                               ; preds = %81
  %92 = load i64, ptr %15, align 8, !tbaa !8
  %93 = add i64 %92, 1
  store i64 %93, ptr %15, align 8, !tbaa !8
  %94 = load ptr, ptr %10, align 8, !tbaa !21
  %95 = getelementptr inbounds nuw %struct.mi_page_s, ptr %94, i32 1
  store ptr %95, ptr %10, align 8, !tbaa !21
  br label %76, !llvm.loop !121

96:                                               ; preds = %80
  call void @llvm.lifetime.start.p0(i64 8, ptr %16) #7
  %97 = load ptr, ptr %6, align 8, !tbaa !19
  %98 = getelementptr inbounds nuw %struct.mi_segment_s, ptr %97, i32 0, i32 19
  %99 = getelementptr inbounds [1024 x %struct.mi_page_s], ptr %98, i64 0, i64 0
  %100 = load i64, ptr %7, align 8, !tbaa !8
  %101 = load i64, ptr %8, align 8, !tbaa !8
  %102 = add i64 %100, %101
  %103 = sub i64 %102, 1
  %104 = getelementptr inbounds nuw %struct.mi_page_s, ptr %99, i64 %103
  store ptr %104, ptr %16, align 8, !tbaa !21
  %105 = load ptr, ptr %16, align 8, !tbaa !21
  %106 = load ptr, ptr %6, align 8, !tbaa !19
  %107 = call ptr @mi_segment_slices_end(ptr noundef %106)
  %108 = icmp ult ptr %105, %107
  br i1 %108, label %109, label %124

109:                                              ; preds = %96
  %110 = load ptr, ptr %16, align 8, !tbaa !21
  %111 = load ptr, ptr %10, align 8, !tbaa !21
  %112 = icmp uge ptr %110, %111
  br i1 %112, label %113, label %124

113:                                              ; preds = %109
  %114 = load i64, ptr %8, align 8, !tbaa !8
  %115 = sub i64 %114, 1
  %116 = mul i64 80, %115
  %117 = trunc i64 %116 to i32
  %118 = load ptr, ptr %16, align 8, !tbaa !21
  %119 = getelementptr inbounds nuw %struct.mi_page_s, ptr %118, i32 0, i32 1
  store i32 %117, ptr %119, align 4, !tbaa !86
  %120 = load ptr, ptr %16, align 8, !tbaa !21
  %121 = getelementptr inbounds nuw %struct.mi_page_s, ptr %120, i32 0, i32 0
  store i32 0, ptr %121, align 8, !tbaa !30
  %122 = load ptr, ptr %16, align 8, !tbaa !21
  %123 = getelementptr inbounds nuw %struct.mi_page_s, ptr %122, i32 0, i32 9
  store i32 1, ptr %123, align 4, !tbaa !23
  br label %124

124:                                              ; preds = %113, %109, %96
  %125 = load ptr, ptr %13, align 8, !tbaa !21
  %126 = getelementptr inbounds nuw %struct.mi_page_s, ptr %125, i32 0, i32 2
  %127 = load i8, ptr %126, align 8
  %128 = and i8 %127, -2
  %129 = or i8 %128, 0
  store i8 %129, ptr %126, align 8
  %130 = load ptr, ptr %13, align 8, !tbaa !21
  %131 = getelementptr inbounds nuw %struct.mi_page_s, ptr %130, i32 0, i32 2
  %132 = load i8, ptr %131, align 8
  %133 = and i8 %132, -3
  %134 = or i8 %133, 2
  store i8 %134, ptr %131, align 8
  %135 = load ptr, ptr %6, align 8, !tbaa !19
  %136 = getelementptr inbounds nuw %struct.mi_segment_s, ptr %135, i32 0, i32 12
  %137 = load i64, ptr %136, align 8, !tbaa !35
  %138 = add i64 %137, 1
  store i64 %138, ptr %136, align 8, !tbaa !35
  %139 = load ptr, ptr %13, align 8, !tbaa !21
  store ptr %139, ptr %5, align 8
  store i32 1, ptr %11, align 4
  call void @llvm.lifetime.end.p0(i64 8, ptr %16) #7
  call void @llvm.lifetime.end.p0(i64 8, ptr %14) #7
  call void @llvm.lifetime.end.p0(i64 8, ptr %13) #7
  call void @llvm.lifetime.end.p0(i64 8, ptr %12) #7
  br label %140

140:                                              ; preds = %124, %31
  call void @llvm.lifetime.end.p0(i64 8, ptr %10) #7
  %141 = load ptr, ptr %5, align 8
  ret ptr %141
}