; Function Attrs: nounwind uwtable
define internal fastcc ptr @mi_segment_span_allocate(ptr noundef %0, i64 noundef %1, i64 noundef %2, ptr %.896.val) unnamed_addr #5 {
  %4 = getelementptr inbounds nuw i8, ptr %0, i64 368
  %5 = shl i64 %1, 16
  %6 = getelementptr inbounds nuw i8, ptr %0, i64 %5
  %7 = getelementptr inbounds nuw i8, ptr %0, i64 152
  br label %8

8:                                                ; preds = %8, %3
  %.057.i.i = phi i64 [ 0, %3 ], [ %11, %8 ]
  %9 = getelementptr inbounds nuw [16 x i64], ptr %7, i64 0, i64 %.057.i.i
  %10 = load i64, ptr %9, align 8, !tbaa !3
  %.not.i.i = icmp eq i64 %10, -1
  %11 = add nuw nsw i64 %.057.i.i, 1
  %exitcond.i.i = icmp ne i64 %11, 16
  %or.cond.not.i.i = select i1 %.not.i.i, i1 %exitcond.i.i, i1 false
  br i1 %or.cond.not.i.i, label %8, label %mi_commit_mask_is_full.exit.i, !llvm.loop !99

mi_commit_mask_is_full.exit.i:                    ; preds = %8
  %12 = getelementptr [1024 x %struct.mi_page_s], ptr %4, i64 0, i64 %1
  %13 = shl i64 %2, 16
  br i1 %.not.i.i, label %14, label %mi_segment_ensure_committed.exit

14:                                               ; preds = %mi_commit_mask_is_full.exit.i
  %15 = getelementptr inbounds nuw i8, ptr %0, i64 24
  br label %16

16:                                               ; preds = %16, %14
  %.057.i6.i = phi i64 [ 0, %14 ], [ %19, %16 ]
  %17 = getelementptr inbounds nuw [16 x i64], ptr %15, i64 0, i64 %.057.i6.i
  %18 = load i64, ptr %17, align 8, !tbaa !3
  %.not.i7.i = icmp eq i64 %18, 0
  %19 = add nuw nsw i64 %.057.i6.i, 1
  %exitcond.i8.i = icmp ne i64 %19, 16
  %or.cond.not.i9.i = select i1 %.not.i7.i, i1 %exitcond.i8.i, i1 false
  br i1 %or.cond.not.i9.i, label %16, label %mi_commit_mask_is_empty.exit.i, !llvm.loop !72

mi_commit_mask_is_empty.exit.i:                   ; preds = %16
  br i1 %.not.i7.i, label %mi_segment_ensure_committed.exit.thread, label %mi_segment_ensure_committed.exit

mi_segment_ensure_committed.exit:                 ; preds = %mi_commit_mask_is_full.exit.i, %mi_commit_mask_is_empty.exit.i
  %20 = tail call fastcc zeroext i1 @mi_segment_commitx(ptr noundef nonnull %0, i1 noundef zeroext true, ptr noundef nonnull %6, i64 noundef %13, ptr noundef %.896.val)
  br i1 %20, label %mi_segment_ensure_committed.exit.thread, label %55

mi_segment_ensure_committed.exit.thread:          ; preds = %mi_commit_mask_is_empty.exit.i, %mi_segment_ensure_committed.exit
  %21 = getelementptr inbounds nuw i8, ptr %12, i64 4
  store i32 0, ptr %21, align 4, !tbaa !90
  %22 = trunc i64 %2 to i32
  store i32 %22, ptr %12, align 8, !tbaa !21
  %23 = tail call i64 @llvm.umin.i64(i64 %13, i64 2147483648)
  %24 = trunc nuw i64 %23 to i32
  %25 = getelementptr inbounds nuw i8, ptr %12, i64 28
  store i32 %24, ptr %25, align 4, !tbaa !14
  %26 = add i64 %2, -1
  %spec.store.select = tail call i64 @llvm.umin.i64(i64 %26, i64 15)
  %27 = add i64 %spec.store.select, %1
  %28 = getelementptr inbounds nuw i8, ptr %0, i64 360
  %29 = load i64, ptr %28, align 8, !tbaa !37
  %.not = icmp ult i64 %27, %29
  %30 = xor i64 %1, -1
  %31 = add i64 %29, %30
  %.047 = select i1 %.not, i64 %spec.store.select, i64 %31
  %.0482 = getelementptr inbounds nuw i8, ptr %12, i64 80
  %.not513 = icmp eq i64 %.047, 0
  br i1 %.not513, label %._crit_edge, label %.lr.ph.preheader

.lr.ph.preheader:                                 ; preds = %mi_segment_ensure_committed.exit.thread
  %32 = add i64 %.047, 1
  %umax = tail call i64 @llvm.umax.i64(i64 %32, i64 2)
  br label %.lr.ph

._crit_edge:                                      ; preds = %.lr.ph, %mi_segment_ensure_committed.exit.thread
  %.048.lcssa = phi ptr [ %.0482, %mi_segment_ensure_committed.exit.thread ], [ %.048, %.lr.ph ]
  %33 = getelementptr %struct.mi_page_s, ptr %12, i64 %2
  %34 = getelementptr i8, ptr %33, i64 -80
  %35 = getelementptr inbounds nuw [1024 x %struct.mi_page_s], ptr %4, i64 0, i64 %29
  %36 = icmp uge ptr %34, %35
  %.not52 = icmp ult ptr %34, %.048.lcssa
  %or.cond = select i1 %36, i1 true, i1 %.not52
  br i1 %or.cond, label %47, label %42

.lr.ph:                                           ; preds = %.lr.ph.preheader, %.lr.ph
  %.0486 = phi ptr [ %.048, %.lr.ph ], [ %.0482, %.lr.ph.preheader ]
  %.0465 = phi i64 [ %41, %.lr.ph ], [ 1, %.lr.ph.preheader ]
  %.pn4 = phi ptr [ %.0486, %.lr.ph ], [ %12, %.lr.ph.preheader ]
  %37 = trunc i64 %.0465 to i32
  %38 = mul i32 %37, 80
  %39 = getelementptr inbounds nuw i8, ptr %.pn4, i64 84
  store i32 %38, ptr %39, align 4, !tbaa !90
  store i32 0, ptr %.0486, align 8, !tbaa !21
  %40 = getelementptr inbounds nuw i8, ptr %.pn4, i64 108
  store i32 1, ptr %40, align 4, !tbaa !14
  %41 = add nuw i64 %.0465, 1
  %.048 = getelementptr inbounds nuw i8, ptr %.0486, i64 80
  %exitcond = icmp eq i64 %41, %umax
  br i1 %exitcond, label %._crit_edge, label %.lr.ph, !llvm.loop !100

42:                                               ; preds = %._crit_edge
  %43 = trunc i64 %26 to i32
  %44 = mul i32 %43, 80
  %45 = getelementptr i8, ptr %33, i64 -76
  store i32 %44, ptr %45, align 4, !tbaa !90
  store i32 0, ptr %34, align 8, !tbaa !21
  %46 = getelementptr i8, ptr %33, i64 -52
  store i32 1, ptr %46, align 4, !tbaa !14
  br label %47

47:                                               ; preds = %42, %._crit_edge
  %48 = getelementptr inbounds nuw i8, ptr %12, i64 8
  %49 = load i8, ptr %48, align 8
  %50 = and i8 %49, -4
  %51 = or disjoint i8 %50, 2
  store i8 %51, ptr %48, align 8
  %52 = getelementptr inbounds nuw i8, ptr %0, i64 312
  %53 = load i64, ptr %52, align 8, !tbaa !22
  %54 = add i64 %53, 1
  store i64 %54, ptr %52, align 8, !tbaa !22
  br label %55

55:                                               ; preds = %mi_segment_ensure_committed.exit, %47
  %.0 = phi ptr [ %12, %47 ], [ null, %mi_segment_ensure_committed.exit ]
  ret ptr %.0
}